target datalayout = "e-m:e-p270:32:32-p271:32:32-p272:64:64-i64:64-i128:128-f80:128-n8:16:32:64-S128"
target triple = "x86_64-unknown-linux-gnu"

%"class.std::set.0" = type { %"class.std::_Rb_tree.1" }
%"class.std::_Rb_tree.1" = type { %"struct.std::_Rb_tree<QuantLib::Observer *, QuantLib::Observer *, std::_Identity<QuantLib::Observer *>, std::less<QuantLib::Observer *>>::_Rb_tree_impl" }
%"struct.std::_Rb_tree<QuantLib::Observer *, QuantLib::Observer *, std::_Identity<QuantLib::Observer *>, std::less<QuantLib::Observer *>>::_Rb_tree_impl" = type { [8 x i8], %"struct.std::_Rb_tree_header" }
%"struct.std::_Rb_tree_header" = type { %"struct.std::_Rb_tree_node_base", i64 }
%"struct.std::_Rb_tree_node_base" = type { i32, ptr, ptr, ptr }
%"class.std::set" = type { %"class.std::_Rb_tree" }
%"class.std::_Rb_tree" = type { %"struct.std::_Rb_tree<boost::shared_ptr<QuantLib::Observable>, boost::shared_ptr<QuantLib::Observable>, std::_Identity<boost::shared_ptr<QuantLib::Observable>>, std::less<boost::shared_ptr<QuantLib::Observable>>>::_Rb_tree_impl" }
%"struct.std::_Rb_tree<boost::shared_ptr<QuantLib::Observable>, boost::shared_ptr<QuantLib::Observable>, std::_Identity<boost::shared_ptr<QuantLib::Observable>>, std::less<boost::shared_ptr<QuantLib::Observable>>>::_Rb_tree_impl" = type { [8 x i8], %"struct.std::_Rb_tree_header" }
%"class.boost::detail::shared_count" = type { ptr }
%"class.QuantLib::Observable" = type { ptr, %"class.std::set.0" }
%"class.QuantLib::Observer" = type { ptr, %"class.std::set" }
%"class.QuantLib::Instrument.base" = type { %"class.QuantLib::LazyObject.base", double, double, %"class.QuantLib::Date", %"class.std::map", %"class.boost::shared_ptr.15" }
%"class.QuantLib::LazyObject.base" = type <{ ptr, i8, i8, i8, i8 }>
%"class.QuantLib::Date" = type { i64 }
%"class.std::map" = type { %"class.std::_Rb_tree.10" }
%"class.std::_Rb_tree.10" = type { %"struct.std::_Rb_tree<std::__cxx11::basic_string<char>, std::pair<const std::__cxx11::basic_string<char>, boost::any>, std::_Select1st<std::pair<const std::__cxx11::basic_string<char>, boost::any>>, std::less<std::__cxx11::basic_string<char>>>::_Rb_tree_impl" }
%"struct.std::_Rb_tree<std::__cxx11::basic_string<char>, std::pair<const std::__cxx11::basic_string<char>, boost::any>, std::_Select1st<std::pair<const std::__cxx11::basic_string<char>, boost::any>>, std::less<std::__cxx11::basic_string<char>>>::_Rb_tree_impl" = type { [8 x i8], %"struct.std::_Rb_tree_header" }
%"class.boost::shared_ptr.15" = type { ptr, %"class.boost::detail::shared_count" }
%"class.boost::shared_ptr.16" = type { ptr, %"class.boost::detail::shared_count" }
%"class.boost::shared_ptr.17" = type { ptr, %"class.boost::detail::shared_count" }
%"class.QuantLib::OneAssetOption.base" = type { %"class.QuantLib::Option.base", double, double, double, double, double, double, double, double, double, double, double }
%"class.QuantLib::Option.base" = type { %"class.QuantLib::Instrument.base", %"class.boost::shared_ptr.16", %"class.boost::shared_ptr.17" }
%"class.QuantLib::ContinuousPartialFloatingLookbackOption" = type { %"class.QuantLib::ContinuousFloatingLookbackOption.base", double, %"class.QuantLib::Date", %"class.QuantLib::Observable", %"class.QuantLib::Observer" }
%"class.QuantLib::ContinuousFloatingLookbackOption.base" = type { %"class.QuantLib::OneAssetOption.base", double }

@_ZTVN8QuantLib8ObserverE = linkonce_odr unnamed_addr constant { [6 x ptr] } { [6 x ptr] [ptr null, ptr @_ZTIN8QuantLib8ObserverE, ptr @_ZN8QuantLib8ObserverD2Ev, ptr @_ZN8QuantLib8ObserverD0Ev, ptr @__cxa_pure_virtual, ptr @_ZN8QuantLib8Observer10deepUpdateEv] }, comdat, align 8
@_ZTVN8QuantLib10ObservableE = linkonce_odr unnamed_addr constant { [4 x ptr] } { [4 x ptr] [ptr null, ptr @_ZTIN8QuantLib10ObservableE, ptr @_ZN8QuantLib10ObservableD2Ev, ptr @_ZN8QuantLib10ObservableD0Ev] }, comdat, align 8

; Function Attrs: mustprogress nounwind uwtable
define linkonce_odr void @_ZNSt15__new_allocatorISt13_Rb_tree_nodeIN5boost10shared_ptrIN8QuantLib10ObservableEEEEEC2Ev(ptr noundef nonnull align 1 dereferenceable(1) %this) unnamed_addr #1 comdat align 2 {
entry:
  %this.addr = alloca ptr, align 8
  store ptr %this, ptr %this.addr, align 8, !tbaa !3
  ret void
}

; Function Attrs: noinline noreturn nounwind uwtable
define linkonce_odr hidden void @__clang_call_terminate(ptr noundef %0) #3 comdat {
  %2 = call ptr @__cxa_begin_catch(ptr %0) #14
  call void @_ZSt9terminatev() #22
  unreachable
}

; Function Attrs: mustprogress nounwind uwtable
define linkonce_odr void @_ZNSt15_Rb_tree_header8_M_resetEv(ptr noundef nonnull align 8 dereferenceable(40) %this) #1 comdat align 2 {
entry:
  %this.addr = alloca ptr, align 8
  store ptr %this, ptr %this.addr, align 8, !tbaa !3
  %this1 = load ptr, ptr %this.addr, align 8
  %_M_header = getelementptr inbounds nuw %"struct.std::_Rb_tree_header", ptr %this1, i32 0, i32 0
  %_M_parent = getelementptr inbounds nuw %"struct.std::_Rb_tree_node_base", ptr %_M_header, i32 0, i32 1
  store ptr null, ptr %_M_parent, align 8, !tbaa !85
  %_M_header2 = getelementptr inbounds nuw %"struct.std::_Rb_tree_header", ptr %this1, i32 0, i32 0
  %_M_header3 = getelementptr inbounds nuw %"struct.std::_Rb_tree_header", ptr %this1, i32 0, i32 0
  %_M_left = getelementptr inbounds nuw %"struct.std::_Rb_tree_node_base", ptr %_M_header3, i32 0, i32 2
  store ptr %_M_header2, ptr %_M_left, align 8, !tbaa !86
  %_M_header4 = getelementptr inbounds nuw %"struct.std::_Rb_tree_header", ptr %this1, i32 0, i32 0
  %_M_header5 = getelementptr inbounds nuw %"struct.std::_Rb_tree_header", ptr %this1, i32 0, i32 0
  %_M_right = getelementptr inbounds nuw %"struct.std::_Rb_tree_node_base", ptr %_M_header5, i32 0, i32 3
  store ptr %_M_header4, ptr %_M_right, align 8, !tbaa !87
  %_M_node_count = getelementptr inbounds nuw %"struct.std::_Rb_tree_header", ptr %this1, i32 0, i32 1
  store i64 0, ptr %_M_node_count, align 8, !tbaa !88
  ret void
}

; Function Attrs: mustprogress nounwind uwtable
define linkonce_odr void @_ZNSt15__new_allocatorISt13_Rb_tree_nodeIPN8QuantLib8ObserverEEEC2Ev(ptr noundef nonnull align 1 dereferenceable(1) %this) unnamed_addr #1 comdat align 2 {
entry:
  %this.addr = alloca ptr, align 8
  store ptr %this, ptr %this.addr, align 8, !tbaa !3
  ret void
}

; Function Attrs: mustprogress nounwind uwtable
define linkonce_odr void @_ZNSt20_Rb_tree_key_compareISt4lessIN5boost10shared_ptrIN8QuantLib10ObservableEEEEEC2Ev(ptr noundef nonnull align 1 dereferenceable(1) %this) unnamed_addr #1 comdat align 2 {
entry:
  %this.addr = alloca ptr, align 8
  store ptr %this, ptr %this.addr, align 8, !tbaa !3
  ret void
}

; Function Attrs: mustprogress nounwind uwtable
define linkonce_odr void @_ZNSaISt13_Rb_tree_nodeIN5boost10shared_ptrIN8QuantLib10ObservableEEEEEC2Ev(ptr noundef nonnull align 1 dereferenceable(1) %this) unnamed_addr #1 comdat align 2 {
entry:
  %this.addr = alloca ptr, align 8
  store ptr %this, ptr %this.addr, align 8, !tbaa !3
  %this1 = load ptr, ptr %this.addr, align 8
  call void @_ZNSt15__new_allocatorISt13_Rb_tree_nodeIN5boost10shared_ptrIN8QuantLib10ObservableEEEEEC2Ev(ptr noundef nonnull align 1 dereferenceable(1) %this1) #14
  ret void
}

; Function Attrs: mustprogress nounwind uwtable
define linkonce_odr void @_ZNSt15_Rb_tree_headerC2Ev(ptr noundef nonnull align 8 dereferenceable(40) %this) unnamed_addr #1 comdat align 2 personality ptr @__gxx_personality_v0 {
entry:
  %this.addr = alloca ptr, align 8
  store ptr %this, ptr %this.addr, align 8, !tbaa !3
  %this1 = load ptr, ptr %this.addr, align 8
  %_M_header2 = getelementptr inbounds nuw %"struct.std::_Rb_tree_header", ptr %this1, i32 0, i32 0
  %_M_color = getelementptr inbounds nuw %"struct.std::_Rb_tree_node_base", ptr %_M_header2, i32 0, i32 0
  store i32 0, ptr %_M_color, align 8, !tbaa !84
  invoke void @_ZNSt15_Rb_tree_header8_M_resetEv(ptr noundef nonnull align 8 dereferenceable(40) %this1)
          to label %invoke.cont unwind label %terminate.lpad

invoke.cont:                                      ; preds = %entry
  ret void

terminate.lpad:                                   ; preds = %entry
  %0 = landingpad { ptr, i32 }
          catch ptr null
  %1 = extractvalue { ptr, i32 } %0, 0
  call void @__clang_call_terminate(ptr %1) #22
  unreachable
}

; Function Attrs: mustprogress nounwind uwtable
define linkonce_odr void @_ZNSt20_Rb_tree_key_compareISt4lessIPN8QuantLib8ObserverEEEC2Ev(ptr noundef nonnull align 1 dereferenceable(1) %this) unnamed_addr #1 comdat align 2 {
entry:
  %this.addr = alloca ptr, align 8
  store ptr %this, ptr %this.addr, align 8, !tbaa !3
  ret void
}

; Function Attrs: mustprogress nounwind uwtable
define linkonce_odr void @_ZNSaISt13_Rb_tree_nodeIPN8QuantLib8ObserverEEEC2Ev(ptr noundef nonnull align 1 dereferenceable(1) %this) unnamed_addr #1 comdat align 2 {
entry:
  %this.addr = alloca ptr, align 8
  store ptr %this, ptr %this.addr, align 8, !tbaa !3
  %this1 = load ptr, ptr %this.addr, align 8
  call void @_ZNSt15__new_allocatorISt13_Rb_tree_nodeIPN8QuantLib8ObserverEEEC2Ev(ptr noundef nonnull align 1 dereferenceable(1) %this1) #14
  ret void
}

; Function Attrs: mustprogress nounwind uwtable
define linkonce_odr void @_ZNSt8_Rb_treeIN5boost10shared_ptrIN8QuantLib10ObservableEEES4_St9_IdentityIS4_ESt4lessIS4_ESaIS4_EE13_Rb_tree_implIS8_Lb1EEC2Ev(ptr noundef nonnull align 8 dereferenceable(48) %this) unnamed_addr #1 comdat align 2 {
entry:
  %this.addr = alloca ptr, align 8
  store ptr %this, ptr %this.addr, align 8, !tbaa !3
  %this1 = load ptr, ptr %this.addr, align 8
  call void @_ZNSaISt13_Rb_tree_nodeIN5boost10shared_ptrIN8QuantLib10ObservableEEEEEC2Ev(ptr noundef nonnull align 1 dereferenceable(1) %this1) #14
  call void @_ZNSt20_Rb_tree_key_compareISt4lessIN5boost10shared_ptrIN8QuantLib10ObservableEEEEEC2Ev(ptr noundef nonnull align 1 dereferenceable(1) %this1) #14
  %0 = getelementptr inbounds i8, ptr %this1, i64 8
  call void @_ZNSt15_Rb_tree_headerC2Ev(ptr noundef nonnull align 8 dereferenceable(40) %0) #14
  ret void
}

; Function Attrs: mustprogress nounwind uwtable
define linkonce_odr void @_ZNSt8_Rb_treeIPN8QuantLib8ObserverES2_St9_IdentityIS2_ESt4lessIS2_ESaIS2_EE13_Rb_tree_implIS6_Lb1EEC2Ev(ptr noundef nonnull align 8 dereferenceable(48) %this) unnamed_addr #1 comdat align 2 {
entry:
  %this.addr = alloca ptr, align 8
  store ptr %this, ptr %this.addr, align 8, !tbaa !3
  %this1 = load ptr, ptr %this.addr, align 8
  call void @_ZNSaISt13_Rb_tree_nodeIPN8QuantLib8ObserverEEEC2Ev(ptr noundef nonnull align 1 dereferenceable(1) %this1) #14
  call void @_ZNSt20_Rb_tree_key_compareISt4lessIPN8QuantLib8ObserverEEEC2Ev(ptr noundef nonnull align 1 dereferenceable(1) %this1) #14
  %0 = getelementptr inbounds i8, ptr %this1, i64 8
  call void @_ZNSt15_Rb_tree_headerC2Ev(ptr noundef nonnull align 8 dereferenceable(40) %0) #14
  ret void
}

; Function Attrs: mustprogress nounwind uwtable
define linkonce_odr void @_ZNSt8_Rb_treeIN5boost10shared_ptrIN8QuantLib10ObservableEEES4_St9_IdentityIS4_ESt4lessIS4_ESaIS4_EEC2Ev(ptr noundef nonnull align 8 dereferenceable(48) %this) unnamed_addr #1 comdat align 2 {
entry:
  %this.addr = alloca ptr, align 8
  store ptr %this, ptr %this.addr, align 8, !tbaa !3
  %this1 = load ptr, ptr %this.addr, align 8
  %_M_impl = getelementptr inbounds nuw %"class.std::_Rb_tree", ptr %this1, i32 0, i32 0
  call void @_ZNSt8_Rb_treeIN5boost10shared_ptrIN8QuantLib10ObservableEEES4_St9_IdentityIS4_ESt4lessIS4_ESaIS4_EE13_Rb_tree_implIS8_Lb1EEC2Ev(ptr noundef nonnull align 8 dereferenceable(48) %_M_impl) #14
  ret void
}

; Function Attrs: mustprogress nounwind uwtable
define linkonce_odr void @_ZNSt8_Rb_treeIPN8QuantLib8ObserverES2_St9_IdentityIS2_ESt4lessIS2_ESaIS2_EEC2Ev(ptr noundef nonnull align 8 dereferenceable(48) %this) unnamed_addr #1 comdat align 2 {
entry:
  %this.addr = alloca ptr, align 8
  store ptr %this, ptr %this.addr, align 8, !tbaa !3
  %this1 = load ptr, ptr %this.addr, align 8
  %_M_impl = getelementptr inbounds nuw %"class.std::_Rb_tree.1", ptr %this1, i32 0, i32 0
  call void @_ZNSt8_Rb_treeIPN8QuantLib8ObserverES2_St9_IdentityIS2_ESt4lessIS2_ESaIS2_EE13_Rb_tree_implIS6_Lb1EEC2Ev(ptr noundef nonnull align 8 dereferenceable(48) %_M_impl) #14
  ret void
}

; Function Attrs: mustprogress nounwind uwtable
define linkonce_odr void @_ZNSt3setIN5boost10shared_ptrIN8QuantLib10ObservableEEESt4lessIS4_ESaIS4_EEC2Ev(ptr noundef nonnull align 8 dereferenceable(48) %this) unnamed_addr #1 comdat align 2 {
entry:
  %this.addr = alloca ptr, align 8
  store ptr %this, ptr %this.addr, align 8, !tbaa !3
  %this1 = load ptr, ptr %this.addr, align 8
  %_M_t = getelementptr inbounds nuw %"class.std::set", ptr %this1, i32 0, i32 0
  call void @_ZNSt8_Rb_treeIN5boost10shared_ptrIN8QuantLib10ObservableEEES4_St9_IdentityIS4_ESt4lessIS4_ESaIS4_EEC2Ev(ptr noundef nonnull align 8 dereferenceable(48) %_M_t) #14
  ret void
}

; Function Attrs: mustprogress nounwind uwtable
define linkonce_odr void @_ZNSt3setIPN8QuantLib8ObserverESt4lessIS2_ESaIS2_EEC2Ev(ptr noundef nonnull align 8 dereferenceable(48) %this) unnamed_addr #1 comdat align 2 {
entry:
  %this.addr = alloca ptr, align 8
  store ptr %this, ptr %this.addr, align 8, !tbaa !3
  %this1 = load ptr, ptr %this.addr, align 8
  %_M_t = getelementptr inbounds nuw %"class.std::set.0", ptr %this1, i32 0, i32 0
  call void @_ZNSt8_Rb_treeIPN8QuantLib8ObserverES2_St9_IdentityIS2_ESt4lessIS2_ESaIS2_EEC2Ev(ptr noundef nonnull align 8 dereferenceable(48) %_M_t) #14
  ret void
}

; Function Attrs: mustprogress nounwind uwtable
define linkonce_odr void @_ZN8QuantLib8ObserverC2Ev(ptr noundef nonnull align 8 dereferenceable(56) %this) unnamed_addr #1 comdat align 2 {
entry:
  %this.addr = alloca ptr, align 8
  store ptr %this, ptr %this.addr, align 8, !tbaa !3
  %this1 = load ptr, ptr %this.addr, align 8
  store ptr getelementptr inbounds inrange(-16, 32) ({ [6 x ptr] }, ptr @_ZTVN8QuantLib8ObserverE, i32 0, i32 0, i32 2), ptr %this1, align 8, !tbaa !20
  %observables_ = getelementptr inbounds nuw %"class.QuantLib::Observer", ptr %this1, i32 0, i32 1
  call void @_ZNSt3setIN5boost10shared_ptrIN8QuantLib10ObservableEEESt4lessIS4_ESaIS4_EEC2Ev(ptr noundef nonnull align 8 dereferenceable(48) %observables_) #14
  ret void
}

; Function Attrs: mustprogress nounwind uwtable
define linkonce_odr void @_ZN8QuantLib10ObservableC2Ev(ptr noundef nonnull align 8 dereferenceable(56) %this) unnamed_addr #1 comdat align 2 {
entry:
  %this.addr = alloca ptr, align 8
  store ptr %this, ptr %this.addr, align 8, !tbaa !3
  %this1 = load ptr, ptr %this.addr, align 8
  store ptr getelementptr inbounds inrange(-16, 16) ({ [4 x ptr] }, ptr @_ZTVN8QuantLib10ObservableE, i32 0, i32 0, i32 2), ptr %this1, align 8, !tbaa !20
  %observers_ = getelementptr inbounds nuw %"class.QuantLib::Observable", ptr %this1, i32 0, i32 1
  call void @_ZNSt3setIPN8QuantLib8ObserverESt4lessIS2_ESaIS2_EEC2Ev(ptr noundef nonnull align 8 dereferenceable(48) %observers_) #14
  ret void
}

; Function Attrs: mustprogress uwtable
define void @_ZN8QuantLib39ContinuousPartialFloatingLookbackOptionC1EddNS_4DateERKN5boost10shared_ptrINS_10TypePayoffEEERKNS3_INS_8ExerciseEEE(ptr noundef nonnull align 8 dereferenceable(248) %this, double noundef %minmax, double noundef %lambda, i64 %lookbackPeriodEnd.coerce, ptr noundef nonnull align 8 dereferenceable(16) %payoff, ptr noundef nonnull align 8 dereferenceable(16) %exercise) unnamed_addr #2 align 2 personality ptr @__gxx_personality_v0 {
entry:
  %lookbackPeriodEnd = alloca %"class.QuantLib::Date", align 8
  %this.addr = alloca ptr, align 8
  %minmax.addr = alloca double, align 8
  %lambda.addr = alloca double, align 8
  %payoff.addr = alloca ptr, align 8
  %exercise.addr = alloca ptr, align 8
  %exn.slot = alloca ptr, align 8
  %ehselector.slot = alloca i32, align 4
  %coerce.dive = getelementptr inbounds nuw %"class.QuantLib::Date", ptr %lookbackPeriodEnd, i32 0, i32 0
  store i64 %lookbackPeriodEnd.coerce, ptr %coerce.dive, align 8
  store ptr %this, ptr %this.addr, align 8, !tbaa !3
  store double %minmax, ptr %minmax.addr, align 8, !tbaa !24
  store double %lambda, ptr %lambda.addr, align 8, !tbaa !24
  store ptr %payoff, ptr %payoff.addr, align 8, !tbaa !3
  store ptr %exercise, ptr %exercise.addr, align 8, !tbaa !3
  %this1 = load ptr, ptr %this.addr, align 8
  %0 = getelementptr inbounds i8, ptr %this1, i64 248
  call void @_ZN8QuantLib10ObservableC2Ev(ptr noundef nonnull align 8 dereferenceable(56) %0) #14
  %1 = getelementptr inbounds i8, ptr %this1, i64 304
  call void @_ZN8QuantLib8ObserverC2Ev(ptr noundef nonnull align 8 dereferenceable(56) %1) #14
  %2 = load double, ptr %minmax.addr, align 8, !tbaa !24
  %3 = load ptr, ptr %payoff.addr, align 8, !tbaa !3
  %4 = load ptr, ptr %exercise.addr, align 8, !tbaa !3
  invoke void @_ZN8QuantLib32ContinuousFloatingLookbackOptionC2EdRKN5boost10shared_ptrINS_10TypePayoffEEERKNS2_INS_8ExerciseEEE(ptr noundef nonnull align 8 dereferenceable(232) %this1, ptr noundef getelementptr inbounds ([18 x ptr], ptr @_ZTTN8QuantLib39ContinuousPartialFloatingLookbackOptionE, i64 0, i64 1), double noundef %2, ptr noundef nonnull align 8 dereferenceable(16) %3, ptr noundef nonnull align 8 dereferenceable(16) %4)
          to label %invoke.cont unwind label %lpad

invoke.cont:                                      ; preds = %entry
  store ptr getelementptr inbounds inrange(-32, 72) ({ [13 x ptr], [5 x ptr], [9 x ptr] }, ptr @_ZTVN8QuantLib39ContinuousPartialFloatingLookbackOptionE, i32 0, i32 0, i32 4), ptr %this1, align 8, !tbaa !20
  %add.ptr = getelementptr inbounds i8, ptr %this1, i64 248
  store ptr getelementptr inbounds inrange(-24, 16) ({ [13 x ptr], [5 x ptr], [9 x ptr] }, ptr @_ZTVN8QuantLib39ContinuousPartialFloatingLookbackOptionE, i32 0, i32 1, i32 3), ptr %add.ptr, align 8, !tbaa !20
  %add.ptr2 = getelementptr inbounds i8, ptr %this1, i64 304
  store ptr getelementptr inbounds inrange(-40, 32) ({ [13 x ptr], [5 x ptr], [9 x ptr] }, ptr @_ZTVN8QuantLib39ContinuousPartialFloatingLookbackOptionE, i32 0, i32 2, i32 5), ptr %add.ptr2, align 8, !tbaa !20
  %lambda_ = getelementptr inbounds nuw %"class.QuantLib::ContinuousPartialFloatingLookbackOption", ptr %this1, i32 0, i32 1
  %5 = load double, ptr %lambda.addr, align 8, !tbaa !24
  store double %5, ptr %lambda_, align 8, !tbaa !56
  %lookbackPeriodEnd_ = getelementptr inbounds nuw %"class.QuantLib::ContinuousPartialFloatingLookbackOption", ptr %this1, i32 0, i32 2
  call void @llvm.memcpy.p0.p0.i64(ptr align 8 %lookbackPeriodEnd_, ptr align 8 %lookbackPeriodEnd, i64 8, i1 false), !tbaa.struct !58
  ret void

lpad:                                             ; preds = %entry
  %6 = landingpad { ptr, i32 }
          cleanup
  %7 = extractvalue { ptr, i32 } %6, 0
  store ptr %7, ptr %exn.slot, align 8
  %8 = extractvalue { ptr, i32 } %6, 1
  store i32 %8, ptr %ehselector.slot, align 4
  %9 = getelementptr inbounds i8, ptr %this1, i64 304
  call void @_ZN8QuantLib8ObserverD2Ev(ptr noundef nonnull align 8 dereferenceable(56) %9) #14
  %10 = getelementptr inbounds i8, ptr %this1, i64 248
  call void @_ZN8QuantLib10ObservableD2Ev(ptr noundef nonnull align 8 dereferenceable(56) %10) #14
  br label %eh.resume

eh.resume:                                        ; preds = %lpad
  %exn = load ptr, ptr %exn.slot, align 8
  %sel = load i32, ptr %ehselector.slot, align 4
  %lpad.val = insertvalue { ptr, i32 } poison, ptr %exn, 0
  %lpad.val3 = insertvalue { ptr, i32 } %lpad.val, i32 %sel, 1
  resume { ptr, i32 } %lpad.val3
}